; Function Attrs: nounwind uwtable
define void @ssl_evp_md_free(ptr noundef %0) local_unnamed_addr #0 {
  %2 = icmp eq ptr %0, null
  br i1 %2, label %6, label %3

3:                                                ; preds = %1
  %4 = tail call ptr @EVP_MD_get0_provider(ptr noundef nonnull %0) #20
  %.not = icmp eq ptr %4, null
  br i1 %.not, label %6, label %5

5:                                                ; preds = %3
  tail call void @EVP_MD_free(ptr noundef nonnull %0) #20
  br label %6

6:                                                ; preds = %1, %5, %3
  ret void
}